; Function Attrs: mustprogress nofree norecurse nosync nounwind willreturn memory(read, argmem: readwrite, inaccessiblemem: none) uwtable
define void @_Z5Undo2P3posiRK8moveType(ptr nocapture noundef %0, i32 noundef %1, ptr nocapture noundef nonnull readonly align 4 dereferenceable(16) %2) local_unnamed_addr #4 {
  %4 = getelementptr inbounds nuw i8, ptr %0, i64 472
  %5 = sext i32 %1 to i64
  %6 = getelementptr inbounds [50 x i32], ptr %4, i64 0, i64 %5
  %7 = load i32, ptr %6, align 4
  %8 = add nsw i32 %7, 1
  %9 = and i32 %8, 3
  %10 = load i32, ptr %2, align 4
  %11 = getelementptr inbounds nuw i8, ptr %2, i64 4
  %12 = load i32, ptr %11, align 4
  %13 = sext i32 %12 to i64
  %14 = getelementptr inbounds [16 x i16], ptr @bitMapRank, i64 0, i64 %13
  %15 = load i16, ptr %14, align 2
  %16 = zext nneg i32 %9 to i64
  %17 = sext i32 %10 to i64
  %18 = getelementptr inbounds [4 x [4 x i16]], ptr %0, i64 0, i64 %16, i64 %17
  %19 = load i16, ptr %18, align 2
  %20 = or i16 %19, %15
  store i16 %20, ptr %18, align 2
  %21 = load i16, ptr %14, align 2
  %22 = getelementptr inbounds nuw i8, ptr %0, i64 32
  %23 = getelementptr inbounds [4 x i16], ptr %22, i64 0, i64 %17
  %24 = load i16, ptr %23, align 2
  %25 = or i16 %24, %21
  store i16 %25, ptr %23, align 2
  %26 = getelementptr inbounds [4 x i32], ptr @_ZL9handDelta, i64 0, i64 %17
  %27 = load i32, ptr %26, align 4
  %28 = getelementptr inbounds nuw i8, ptr %0, i64 56
  %29 = getelementptr inbounds [4 x i32], ptr %28, i64 0, i64 %16
  %30 = load i32, ptr %29, align 4
  %31 = add nsw i32 %30, %27
  store i32 %31, ptr %29, align 4
  %32 = getelementptr inbounds nuw i8, ptr %0, i64 40
  %33 = getelementptr inbounds [4 x [4 x i8]], ptr %32, i64 0, i64 %16, i64 %17
  %34 = load i8, ptr %33, align 1
  %35 = add i8 %34, 1
  store i8 %35, ptr %33, align 1
  ret void
}